(dp0
S'METTS MARK'
p1
(dp2
S'salary'
p3
F365788.0
sS'total_payments'
p4
F1061827.0
sS'bonus'
p5
F600000.0
sS'total_stock_value'
p6
F585062.0
sS'expenses'
p7
F94299.0
sS'exercised_stock_options'
p8
F1297049.0
sS'other'
p9
F1740.0
sS'to_poi'
p10
F0.034482758620689655
sS'poi'
p11
I00
sS'from_poi'
p12
F0.04708798017348203
sS'shared_receipt_with_poi'
p13
F702.0
sS'restricted_stock'
p14
F585062.0
ssS'BAXTER JOHN C'
p15
(dp16
g3
F267102.0
sg4
F5634343.0
sg5
F1200000.0
sg6
F10623258.0
sg7
F11200.0
sg8
F6680544.0
sg9
F2660303.0
sg10
F0.0
sg11
I00
sg12
F0.0
sg13
F740.5
sg14
F3942714.0
ssS'ELLIOTT STEVEN'
p17
(dp18
g3
F170941.0
sg4
F211725.0
sg5
F350000.0
sg6
F6678735.0
sg7
F78552.0
sg8
F4890344.0
sg9
F12961.0
sg10
F0.0
sg11
I00
sg12
F0.0
sg13
F740.5
sg14
F1788391.0
ssS'CORDES WILLIAM R'
p19
(dp20
g3
F258741.0
sg4
F1100246.5
sg5
F750000.0
sg6
F1038185.0
sg7
F46547.5
sg8
F651850.0
sg9
F51984.5
sg10
F0.0
sg11
I00
sg12
F0.013089005235602094
sg13
F58.0
sg14
F386335.0
ssS'HANNON KEVIN P'
p21
(dp22
g3
F243293.0
sg4
F288682.0
sg5
F1500000.0
sg6
F6391065.0
sg7
F34039.0
sg8
F5538001.0
sg9
F11350.0
sg10
F0.65625
sg11
I01
sg12
F0.03062200956937799
sg13
F1035.0
sg14
F853064.0
ssS'MORDAUNT KRISTINA M'
p23
(dp24
g3
F267093.0
sg4
F628522.0
sg5
F325000.0
sg6
F208510.0
sg7
F35018.0
sg8
F1297049.0
sg9
F1411.0
sg10
F0.0
sg11
I00
sg12
F0.0
sg13
F740.5
sg14
F208510.0
ssS'MEYER ROCKFORD G'
p25
(dp26
g3
F258741.0
sg4
F1848227.0
sg5
F750000.0
sg6
F955873.0
sg7
F46547.5
sg8
F493489.0
sg9
F51984.5
sg10
F0.0
sg11
I00
sg12
F0.0
sg13
F22.0
sg14
F462384.0
ssS'MCMAHON JEFFREY'
p27
(dp28
g3
F370448.0
sg4
F4099771.0
sg5
F2600000.0
sg6
F1662855.0
sg7
F137108.0
sg8
F1104054.0
sg9
F297353.0
sg10
F0.5416666666666666
sg11
I00
sg12
F0.024628450106157114
sg13
F2228.0
sg14
F558801.0
ssS'HAEDICKE MARK E'
p29
(dp30
g3
F374125.0
sg4
F3859065.0
sg5
F1150000.0
sg6
F803094.0
sg7
F76169.0
sg8
F608750.0
sg9
F52382.0
sg10
F0.03142709943328181
sg11
I00
sg12
F0.04489897730107259
sg13
F1847.0
sg14
F524169.0
ssS'PIPER GREGORY F'
p31
(dp32
g3
F197091.0
sg4
F1737629.0
sg5
F400000.0
sg6
F880290.0
sg7
F43057.0
sg8
F880290.0
sg9
F778.0
sg10
F0.21621621621621623
sg11
I00
sg12
F0.049273021001615507
sg13
F742.0
sg14
F409554.0
ssS'HUMPHREY GENE E'
p33
(dp34
g3
F130724.0
sg4
F3100224.0
sg5
F750000.0
sg6
F2282768.0
sg7
F4994.0
sg8
F2282768.0
sg9
F51984.5
sg10
F1.0
sg11
I00
sg12
F0.078125
sg13
F119.0
sg14
F441096.0
ssS'NOLES JAMES L'
p35
(dp36
g3
F258741.0
sg4
F774401.0
sg5
F750000.0
sg6
F368705.0
sg7
F46547.5
sg8
F1297049.0
sg9
F51984.5
sg10
F0.0
sg11
I00
sg12
F0.0
sg13
F740.5
sg14
F463261.0
ssS'BLACHMAN JEREMY M'
p37
(dp38
g3
F248546.0
sg4
F2014835.0
sg5
F850000.0
sg6
F954354.0
sg7
F84208.0
sg8
F765313.0
sg9
F272.0
sg10
F0.14285714285714285
sg11
I00
sg12
F0.010101010101010102
sg13
F2326.0
sg14
F189041.0
ssS'SUNDE MARTIN'
p39
(dp40
g3
F257486.0
sg4
F1545059.0
sg5
F700000.0
sg6
F698920.0
sg7
F46547.5
sg8
F1297049.0
sg9
F111122.0
sg10
F0.34210526315789475
sg11
I00
sg12
F0.013978088401964487
sg13
F2565.0
sg14
F698920.0
ssS'GIBBS DANA R'
p41
(dp42
g3
F258741.0
sg4
F966522.0
sg5
F750000.0
sg6
F2218275.0
sg7
F46547.5
sg8
F2218275.0
sg9
F51984.5
sg10
F0.0
sg11
I00
sg12
F0.0
sg13
F23.0
sg14
F441096.0
ssS'LOWRY CHARLES P'
p43
(dp44
g3
F258741.0
sg4
F1100246.5
sg5
F750000.0
sg6
F372205.0
sg7
F46547.5
sg8
F372205.0
sg9
F51984.5
sg10
F0.0
sg11
I00
sg12
F0.0
sg13
F740.5
sg14
F153686.0
ssS'COLWELL WESLEY'
p45
(dp46
g3
F288542.0
sg4
F1490344.0
sg5
F1200000.0
sg6
F698242.0
sg7
F16514.0
sg8
F1297049.0
sg9
F101740.0
sg10
F0.275
sg11
I01
sg12
F0.13651877133105803
sg13
F1132.0
sg14
F698242.0
ssS'MULLER MARK S'
p47
(dp48
g3
F251654.0
sg4
F3202070.0
sg5
F1100000.0
sg6
F1416848.0
sg7
F46547.5
sg8
F1056320.0
sg9
F947.0
sg10
F0.0
sg11
I00
sg12
F0.08823529411764706
sg13
F114.0
sg14
F360528.0
ssS'JACKSON CHARLENE R'
p49
(dp50
g3
F288558.0
sg4
F551174.0
sg5
F250000.0
sg6
F725735.0
sg7
F10181.0
sg8
F185063.0
sg9
F2435.0
sg10
F0.3392857142857143
sg11
I00
sg12
F0.09689922480620156
sg13
F117.0
sg14
F540672.0
ssS'WESTFAHL RICHARD K'
p51
(dp52
g3
F63744.0
sg4
F762135.0
sg5
F750000.0
sg6
F384930.0
sg7
F51870.0
sg8
F1297049.0
sg9
F401130.0
sg10
F0.0
sg11
I00
sg12
F0.0
sg13
F740.5
sg14
F384930.0
ssS'WALTERS GARETH W'
p53
(dp54
g3
F258741.0
sg4
F87410.0
sg5
F750000.0
sg6
F1030329.0
sg7
F33785.0
sg8
F1030329.0
sg9
F51984.5
sg10
F0.0
sg11
I00
sg12
F0.0
sg13
F740.5
sg14
F441096.0
ssS'WALLS JR ROBERT H'
p55
(dp56
g3
F357091.0
sg4
F1798780.0
sg5
F850000.0
sg6
F5898997.0
sg7
F50936.0
sg8
F4346544.0
sg9
F2.0
sg10
F0.0
sg11
I00
sg12
F0.02533532041728763
sg13
F215.0
sg14
F1552453.0
ssS'KITCHEN LOUISE'
p57
(dp58
g3
F271442.0
sg4
F3471141.0
sg5
F3100000.0
sg6
F547143.0
sg7
F5774.0
sg8
F81042.0
sg9
F93925.0
sg10
F0.11226851851851852
sg11
I00
sg12
F0.030222757375075255
sg13
F3669.0
sg14
F466101.0
ssS'CHAN RONNIE'
p59
(dp60
g3
F258741.0
sg4
F1100246.5
sg5
F750000.0
sg6
F1095040.0
sg7
F46547.5
sg8
F1297049.0
sg9
F51984.5
sg10
F0.0
sg11
I00
sg12
F0.0
sg13
F740.5
sg14
F32460.0
ssS'BELFER ROBERT'
p61
(dp62
g3
F258741.0
sg4
F102500.0
sg5
F750000.0
sg6
F-44093.0
sg7
F46547.5
sg8
F3285.0
sg9
F51984.5
sg10
F0.0
sg11
I00
sg12
F0.0
sg13
F740.5
sg14
F441096.0
ssS'SHANKMAN JEFFREY A'
p63
(dp64
g3
F304110.0
sg4
F3038702.0
sg5
F2000000.0
sg6
F2072035.0
sg7
F178979.0
sg8
F1441898.0
sg9
F1191.0
sg10
F0.030958597538232
sg11
I00
sg12
F0.029183483390251473
sg13
F1730.0
sg14
F630137.0
ssS'WODRASKA JOHN'
p65
(dp66
g3
F258741.0
sg4
F189583.0
sg5
F750000.0
sg6
F1095040.0
sg7
F46547.5
sg8
F1297049.0
sg9
F189583.0
sg10
F0.0
sg11
I00
sg12
F0.0
sg13
F740.5
sg14
F441096.0
ssS'BERGSIEKER RICHARD P'
p67
(dp68
g3
F187922.0
sg4
F618850.0
sg5
F250000.0
sg6
F659249.0
sg7
F59175.0
sg8
F1297049.0
sg9
F427316.0
sg10
F0.0
sg11
I00
sg12
F0.010443864229765013
sg13
F233.0
sg14
F659249.0
ssS'URQUHART JOHN A'
p69
(dp70
g3
F258741.0
sg4
F228656.0
sg5
F750000.0
sg6
F1095040.0
sg7
F228656.0
sg8
F1297049.0
sg9
F51984.5
sg10
F0.0
sg11
I00
sg12
F0.0
sg13
F740.5
sg14
F441096.0
ssS'BIBI PHILIPPE A'
p71
(dp72
g3
F213625.0
sg4
F2047593.0
sg5
F1000000.0
sg6
F1843816.0
sg7
F38559.0
sg8
F1465734.0
sg9
F425688.0
sg10
F0.2
sg11
I00
sg12
F0.01431238332296204
sg13
F1336.0
sg14
F378082.0
ssS'RIEKER PAULA H'
p73
(dp74
g3
F249201.0
sg4
F1099100.0
sg5
F700000.0
sg6
F1918887.0
sg7
F33271.0
sg8
F1635238.0
sg9
F1950.0
sg10
F0.5853658536585366
sg11
I01
sg12
F0.02635542168674699
sg13
F1258.0
sg14
F283649.0
ssS'WHALEY DAVID A'
p75
(dp76
g3
F258741.0
sg4
F1100246.5
sg5
F750000.0
sg6
F98718.0
sg7
F46547.5
sg8
F98718.0
sg9
F51984.5
sg10
F0.0
sg11
I00
sg12
F0.0
sg13
F740.5
sg14
F441096.0
ssS'BECK SALLY W'
p77
(dp78
g3
F231330.0
sg4
F969068.0
sg5
F700000.0
sg6
F126027.0
sg7
F37172.0
sg8
F1297049.0
sg9
F566.0
sg10
F0.08887865530739121
sg11
I00
sg12
F0.01968557758031442
sg13
F2639.0
sg14
F126027.0
ssS'HAUG DAVID L'
p79
(dp80
g3
F258741.0
sg4
F475.0
sg5
F750000.0
sg6
F2217299.0
sg7
F475.0
sg8
F1297049.0
sg9
F51984.5
sg10
F0.3684210526315789
sg11
I00
sg12
F0.006980802792321117
sg13
F471.0
sg14
F2217299.0
ssS'ECHOLS JOHN B'
p81
(dp82
g3
F182245.0
sg4
F2692324.0
sg5
F200000.0
sg6
F1008941.0
sg7
F21530.0
sg8
F601438.0
sg9
F53775.0
sg10
F0.0
sg11
I00
sg12
F0.0
sg13
F740.5
sg14
F407503.0
ssS'MENDELSOHN JOHN'
p83
(dp84
g3
F258741.0
sg4
F148.0
sg5
F750000.0
sg6
F1095040.0
sg7
F148.0
sg8
F1297049.0
sg9
F51984.5
sg10
F0.0
sg11
I00
sg12
F0.0
sg13
F740.5
sg14
F441096.0
ssS'HICKERSON GARY J'
p85
(dp86
g3
F211788.0
sg4
F2081796.0
sg5
F1700000.0
sg6
F441096.0
sg7
F98849.0
sg8
F1297049.0
sg9
F1936.0
sg10
F0.037037037037037035
sg11
I00
sg12
F0.030303030303030304
sg13
F900.0
sg14
F441096.0
ssS'CLINE KENNETH W'
p87
(dp88
g3
F258741.0
sg4
F1100246.5
sg5
F750000.0
sg6
F189518.0
sg7
F46547.5
sg8
F1297049.0
sg9
F51984.5
sg10
F0.0
sg11
I00
sg12
F0.0
sg13
F740.5
sg14
F662086.0
ssS'LEWIS RICHARD'
p89
(dp90
g3
F258741.0
sg4
F1100246.5
sg5
F750000.0
sg6
F850477.0
sg7
F46547.5
sg8
F850477.0
sg9
F51984.5
sg10
F0.0
sg11
I00
sg12
F0.01050420168067227
sg13
F739.0
sg14
F441096.0
ssS'HAYES ROBERT E'
p91
(dp92
g3
F258741.0
sg4
F7961.0
sg5
F750000.0
sg6
F151418.0
sg7
F46547.5
sg8
F1297049.0
sg9
F51984.5
sg10
F0.0
sg11
I00
sg12
F0.031746031746031744
sg13
F50.0
sg14
F151418.0
ssS'KOPPER MICHAEL J'
p93
(dp94
g3
F224305.0
sg4
F2652612.0
sg5
F800000.0
sg6
F985032.0
sg7
F118134.0
sg8
F1297049.0
sg9
F907502.0
sg10
F0.0
sg11
I01
sg12
F0.0
sg13
F740.5
sg14
F985032.0
ssS'LEFF DANIEL P'
p95
(dp96
g3
F273746.0
sg4
F2664228.0
sg5
F1000000.0
sg6
F360528.0
sg7
F46547.5
sg8
F1297049.0
sg9
F3083.0
sg10
F0.2222222222222222
sg11
I00
sg12
F0.02374202693125443
sg13
F2672.0
sg14
F360528.0
ssS'LAVORATO JOHN J'
p97
(dp98
g3
F339288.0
sg4
F10425757.0
sg5
F8000000.0
sg6
F5167144.0
sg7
F49537.0
sg8
F4158995.0
sg9
F1552.0
sg10
F0.15899419729206962
sg11
I00
sg12
F0.07273729163796666
sg13
F3962.0
sg14
F1008149.0
ssS'BERBERIAN DAVID'
p99
(dp100
g3
F216582.0
sg4
F228474.0
sg5
F750000.0
sg6
F2493616.0
sg7
F11892.0
sg8
F1624396.0
sg9
F51984.5
sg10
F0.0
sg11
I00
sg12
F0.0
sg13
F740.5
sg14
F869220.0
ssS'DETMERING TIMOTHY J'
p101
(dp102
g3
F210500.0
sg4
F1204583.0
sg5
F425000.0
sg6
F2027865.0
sg7
F52255.0
sg8
F2027865.0
sg9
F1105.0
sg10
F0.0
sg11
I00
sg12
F0.0
sg13
F740.5
sg14
F315068.0
ssS'WAKEHAM JOHN'
p103
(dp104
g3
F258741.0
sg4
F213071.0
sg5
F750000.0
sg6
F1095040.0
sg7
F103773.0
sg8
F1297049.0
sg9
F51984.5
sg10
F0.0
sg11
I00
sg12
F0.0
sg13
F740.5
sg14
F441096.0
ssS'POWERS WILLIAM'
p105
(dp106
g3
F258741.0
sg4
F1100246.5
sg5
F750000.0
sg6
F1095040.0
sg7
F46547.5
sg8
F1297049.0
sg9
F51984.5
sg10
F0.0
sg11
I00
sg12
F0.0
sg13
F12.0
sg14
F441096.0
ssS'GOLD JOSEPH'
p107
(dp108
g3
F272880.0
sg4
F2146973.0
sg5
F750000.0
sg6
F877611.0
sg7
F46547.5
sg8
F436515.0
sg9
F819288.0
sg10
F0.0
sg11
I00
sg12
F0.0
sg13
F740.5
sg14
F441096.0
ssS'BANNANTINE JAMES M'
p109
(dp110
g3
F477.0
sg4
F916197.0
sg5
F750000.0
sg6
F5243487.0
sg7
F56301.0
sg8
F4046157.0
sg9
F864523.0
sg10
F0.0
sg11
I00
sg12
F0.06890459363957598
sg13
F465.0
sg14
F1757552.0
ssS'DUNCAN JOHN H'
p111
(dp112
g3
F258741.0
sg4
F77492.0
sg5
F750000.0
sg6
F371750.0
sg7
F46547.5
sg8
F371750.0
sg9
F51984.5
sg10
F0.0
sg11
I00
sg12
F0.0
sg13
F740.5
sg14
F441096.0
ssS'SHAPIRO RICHARD S'
p113
(dp114
g3
F269076.0
sg4
F1057548.0
sg5
F650000.0
sg6
F987001.0
sg7
F137767.0
sg8
F607837.0
sg9
F705.0
sg10
F0.053497942386831275
sg11
I00
sg12
F0.0048848108786058485
sg13
F4527.0
sg14
F379164.0
ssS'SHERRIFF JOHN R'
p115
(dp116
g3
F428780.0
sg4
F4335388.0
sg5
F1500000.0
sg6
F3128982.0
sg7
F46547.5
sg8
F1835558.0
sg9
F1852186.0
sg10
F0.25
sg11
I00
sg12
F0.008785691873235017
sg13
F2103.0
sg14
F1293424.0
ssS'SHELBY REX'
p117
(dp118
g3
F211844.0
sg4
F2003885.0
sg5
F200000.0
sg6
F2493616.0
sg7
F22884.0
sg8
F1624396.0
sg9
F1573324.0
sg10
F0.358974358974359
sg11
I01
sg12
F0.057777777777777775
sg13
F91.0
sg14
F869220.0
ssS'LEMAISTRE CHARLES'
p119
(dp120
g3
F258741.0
sg4
F87492.0
sg5
F750000.0
sg6
F412878.0
sg7
F46547.5
sg8
F412878.0
sg9
F51984.5
sg10
F0.0
sg11
I00
sg12
F0.0
sg13
F740.5
sg14
F441096.0
ssS'DEFFNER JOSEPH M'
p121
(dp122
g3
F206121.0
sg4
F1208649.0
sg5
F600000.0
sg6
F159211.0
sg7
F41626.0
sg8
F17378.0
sg9
F25553.0
sg10
F0.05405405405405406
sg11
I00
sg12
F0.16106442577030813
sg13
F552.0
sg14
F141833.0
ssS'KISHKILL JOSEPH G'
p123
(dp124
g3
F174246.0
sg4
F704896.0
sg5
F750000.0
sg6
F1034346.0
sg7
F116335.0
sg8
F1297049.0
sg9
F465357.0
sg10
F0.0
sg11
I00
sg12
F0.0
sg13
F740.5
sg14
F1034346.0
ssS'WHALLEY LAWRENCE G'
p125
(dp126
g3
F510364.0
sg4
F4677574.0
sg5
F3000000.0
sg6
F6079137.0
sg7
F57838.0
sg8
F3282960.0
sg9
F301026.0
sg10
F0.04316546762589928
sg11
I00
sg12
F0.03090214321315833
sg13
F3920.0
sg14
F2796177.0
ssS'PIRO JIM'
p127
(dp128
g3
F258741.0
sg4
F1100246.5
sg5
F750000.0
sg6
F47304.0
sg7
F46547.5
sg8
F1297049.0
sg9
F51984.5
sg10
F0.0625
sg11
I00
sg12
F0.0
sg13
F3.0
sg14
F47304.0
ssS'MCCONNELL MICHAEL S'
p129
(dp130
g3
F365038.0
sg4
F2101364.0
sg5
F1100000.0
sg6
F3101279.0
sg7
F81364.0
sg8
F1623010.0
sg9
F540.0
sg10
F0.07075127644055434
sg11
I00
sg12
F0.02763592670471613
sg13
F2189.0
sg14
F1478269.0
ssS'DELAINEY DAVID W'
p131
(dp132
g3
F365163.0
sg4
F4747979.0
sg5
F3000000.0
sg6
F3614261.0
sg7
F86174.0
sg8
F2291113.0
sg9
F1661.0
sg10
F0.198435972629521
sg11
I01
sg12
F0.02133850630455868
sg13
F2097.0
sg14
F1323148.0
ssS'SULLIVAN-SHAKLOVITZ COLLEEN'
p133
(dp134
g3
F162779.0
sg4
F999356.0
sg5
F100000.0
sg6
F1362375.0
sg7
F46547.5
sg8
F1362375.0
sg9
F162.0
sg10
F0.0
sg11
I00
sg12
F0.0
sg13
F740.5
sg14
F441096.0
ssS'WROBEL BRUCE'
p135
(dp136
g3
F258741.0
sg4
F1100246.5
sg5
F750000.0
sg6
F139130.0
sg7
F46547.5
sg8
F139130.0
sg9
F51984.5
sg10
F0.0
sg11
I00
sg12
F0.0
sg13
F740.5
sg14
F441096.0
ssS'LINDHOLM TOD A'
p137
(dp138
g3
F236457.0
sg4
F875889.0
sg5
F200000.0
sg6
F3064208.0
sg7
F57727.0
sg8
F2549361.0
sg9
F2630.0
sg10
F0.0
sg11
I00
sg12
F0.0
sg13
F740.5
sg14
F514847.0
ssS'MEYER JEROME J'
p139
(dp140
g3
F258741.0
sg4
F2151.0
sg5
F750000.0
sg6
F1095040.0
sg7
F2151.0
sg8
F1297049.0
sg9
F51984.5
sg10
F0.0
sg11
I00
sg12
F0.0
sg13
F740.5
sg14
F441096.0
ssS'LAY KENNETH L'
p141
(dp142
g3
F1072321.0
sg4
F103559793.0
sg5
F7000000.0
sg6
F49110078.0
sg7
F99832.0
sg8
F34348384.0
sg9
F10359729.0
sg10
F0.4444444444444444
sg11
I01
sg12
F0.028785396676807865
sg13
F2411.0
sg14
F14761694.0
ssS'BUTTS ROBERT H'
p143
(dp144
g3
F261516.0
sg4
F1271582.0
sg5
F750000.0
sg6
F417619.0
sg7
F9410.0
sg8
F1297049.0
sg9
F150656.0
sg10
F0.0
sg11
I00
sg12
F0.0
sg13
F740.5
sg14
F417619.0
ssS'OLSON CINDY K'
p145
(dp146
g3
F329078.0
sg4
F1321557.0
sg5
F750000.0
sg6
F2606763.0
sg7
F63791.0
sg8
F1637034.0
sg9
F972.0
sg10
F0.28846153846153844
sg11
I00
sg12
F0.016891891891891893
sg13
F856.0
sg14
F969729.0
ssS'MCDONALD REBECCA'
p147
(dp148
g3
F258741.0
sg4
F1100246.5
sg5
F750000.0
sg6
F1691366.0
sg7
F46547.5
sg8
F757301.0
sg9
F51984.5
sg10
F0.07692307692307693
sg11
I00
sg12
F0.06040268456375839
sg13
F720.0
sg14
F934065.0
ssS'CUMBERLAND MICHAEL S'
p149
(dp150
g3
F184899.0
sg4
F807956.0
sg5
F325000.0
sg6
F207940.0
sg7
F22344.0
sg8
F1297049.0
sg9
F713.0
sg10
F0.0
sg11
I00
sg12
F0.0
sg13
F740.5
sg14
F207940.0
ssS'GAHN ROBERT S'
p151
(dp152
g3
F192008.0
sg4
F900585.0
sg5
F509870.0
sg6
F318607.0
sg7
F50080.0
sg8
F83237.0
sg9
F76547.0
sg10
F0.0
sg11
I00
sg12
F0.0
sg13
F740.5
sg14
F235370.0
ssS'BADUM JAMES P'
p153
(dp154
g3
F258741.0
sg4
F182466.0
sg5
F750000.0
sg6
F257817.0
sg7
F3486.0
sg8
F257817.0
sg9
F51984.5
sg10
F0.0
sg11
I00
sg12
F0.0
sg13
F740.5
sg14
F441096.0
ssS'HERMANN ROBERT J'
p155
(dp156
g3
F262663.0
sg4
F1297461.0
sg5
F700000.0
sg6
F668132.0
sg7
F48357.0
sg8
F187500.0
sg9
F416441.0
sg10
F0.0
sg11
I00
sg12
F0.0
sg13
F740.5
sg14
F480632.0
ssS'FALLON JAMES B'
p157
(dp158
g3
F304588.0
sg4
F3676340.0
sg5
F2500000.0
sg6
F2332399.0
sg7
F95924.0
sg8
F940257.0
sg9
F401481.0
sg10
F0.49333333333333335
sg11
I00
sg12
F0.023931623931623933
sg13
F1604.0
sg14
F1392142.0
ssS'GATHMANN WILLIAM D'
p159
(dp160
g3
F258741.0
sg4
F1100246.5
sg5
F750000.0
sg6
F1945360.0
sg7
F46547.5
sg8
F1753766.0
sg9
F51984.5
sg10
F0.0
sg11
I00
sg12
F0.0
sg13
F740.5
sg14
F264013.0
ssS'HORTON STANLEY C'
p161
(dp162
g3
F258741.0
sg4
F3131860.0
sg5
F750000.0
sg6
F7256648.0
sg7
F46547.5
sg8
F5210569.0
sg9
F51984.5
sg10
F0.013979496738117428
sg11
I00
sg12
F0.01872340425531915
sg13
F1074.0
sg14
F2046079.0
ssS'BOWEN JR RAYMOND M'
p163
(dp164
g3
F278601.0
sg4
F2669589.0
sg5
F1350000.0
sg6
F252055.0
sg7
F65907.0
sg8
F1297049.0
sg9
F1621.0
sg10
F0.5555555555555556
sg11
I01
sg12
F0.07534983853606028
sg13
F1593.0
sg14
F252055.0
ssS'GILLIS JOHN'
p165
(dp166
g3
F258741.0
sg4
F1100246.5
sg5
F750000.0
sg6
F85641.0
sg7
F46547.5
sg8
F9803.0
sg9
F51984.5
sg10
F0.0
sg11
I00
sg12
F0.0
sg13
F740.5
sg14
F75838.0
ssS'FITZGERALD JAY L'
p167
(dp168
g3
F199157.0
sg4
F1414857.0
sg5
F350000.0
sg6
F1621236.0
sg7
F23870.0
sg8
F664461.0
sg9
F285414.0
sg10
F0.5
sg11
I00
sg12
F0.0010683760683760685
sg13
F723.0
sg14
F956775.0
ssS'MORAN MICHAEL P'
p169
(dp170
g3
F258741.0
sg4
F1100246.5
sg5
F750000.0
sg6
F221141.0
sg7
F46547.5
sg8
F59539.0
sg9
F51984.5
sg10
F0.0
sg11
I00
sg12
F0.0
sg13
F127.0
sg14
F161602.0
ssS'REDMOND BRIAN L'
p171
(dp172
g3
F96840.0
sg4
F111529.0
sg5
F750000.0
sg6
F7890324.0
sg7
F14689.0
sg8
F7509039.0
sg9
F51984.5
sg10
F0.22171945701357465
sg11
I00
sg12
F0.12208258527827648
sg13
F1063.0
sg14
F381285.0
ssS'BAZELIDES PHILIP J'
p173
(dp174
g3
F80818.0
sg4
F860136.0
sg5
F750000.0
sg6
F1599641.0
sg7
F46547.5
sg8
F1599641.0
sg9
F874.0
sg10
F0.0
sg11
I00
sg12
F0.0
sg13
F740.5
sg14
F441096.0
ssS'BELDEN TIMOTHY N'
p175
(dp176
g3
F213999.0
sg4
F5501630.0
sg5
F5249999.0
sg6
F1110705.0
sg7
F17355.0
sg8
F953136.0
sg9
F210698.0
sg10
F0.2231404958677686
sg11
I01
sg12
F0.028532098610937303
sg13
F5521.0
sg14
F157569.0
ssS'DIMICHELE RICHARD G'
p177
(dp178
g3
F262788.0
sg4
F2368151.0
sg5
F1000000.0
sg6
F8317782.0
sg7
F35812.0
sg8
F8191755.0
sg9
F374689.0
sg10
F0.0
sg11
I00
sg12
F0.0
sg13
F740.5
sg14
F126027.0
ssS'DURAN WILLIAM D'
p179
(dp180
g3
F210692.0
sg4
F2093263.0
sg5
F750000.0
sg6
F1640910.0
sg7
F25785.0
sg8
F1451869.0
sg9
F1568.0
sg10
F0.25
sg11
I00
sg12
F0.1172566371681416
sg13
F599.0
sg14
F189041.0
ssS'THORN TERENCE H'
p181
(dp182
g3
F222093.0
sg4
F911453.0
sg5
F750000.0
sg6
F4817796.0
sg7
F46145.0
sg8
F4452476.0
sg9
F426629.0
sg10
F0.0
sg11
I00
sg12
F0.0
sg13
F73.0
sg14
F365320.0
ssS'FASTOW ANDREW S'
p183
(dp184
g3
F440698.0
sg4
F2424083.0
sg5
F1300000.0
sg6
F1794412.0
sg7
F55921.0
sg8
F1297049.0
sg9
F277464.0
sg10
F0.0
sg11
I01
sg12
F0.0
sg13
F740.5
sg14
F1794412.0
ssS'FOY JOE'
p185
(dp186
g3
F258741.0
sg4
F181755.0
sg5
F750000.0
sg6
F343434.0
sg7
F46547.5
sg8
F343434.0
sg9
F51984.5
sg10
F0.0
sg11
I00
sg12
F0.0
sg13
F2.0
sg14
F441096.0
ssS'CALGER CHRISTOPHER F'
p187
(dp188
g3
F240189.0
sg4
F1639297.0
sg5
F1250000.0
sg6
F126027.0
sg7
F35818.0
sg8
F1297049.0
sg9
F486.0
sg10
F0.1736111111111111
sg11
I01
sg12
F0.07659738260200154
sg13
F2188.0
sg14
F126027.0
ssS'RICE KENNETH D'
p189
(dp190
g3
F420636.0
sg4
F505050.0
sg5
F1750000.0
sg6
F22542539.0
sg7
F46950.0
sg8
F19794175.0
sg9
F174839.0
sg10
F0.2222222222222222
sg11
I01
sg12
F0.04640883977900553
sg13
F864.0
sg14
F2748364.0
ssS'KAMINSKI WINCENTY J'
p191
(dp192
g3
F275101.0
sg4
F1086821.0
sg5
F400000.0
sg6
F976037.0
sg7
F83585.0
sg8
F850010.0
sg9
F4669.0
sg10
F0.011901447661469933
sg11
I00
sg12
F0.008899500759713479
sg13
F583.0
sg14
F126027.0
ssS'LOCKHART EUGENE E'
p193
(dp194
g3
F258741.0
sg4
F1100246.5
sg5
F750000.0
sg6
F1095040.0
sg7
F46547.5
sg8
F1297049.0
sg9
F51984.5
sg10
F0.0
sg11
I00
sg12
F0.0
sg13
F740.5
sg14
F441096.0
ssS'COX DAVID'
p195
(dp196
g3
F314288.0
sg4
F1101393.0
sg5
F800000.0
sg6
F495633.0
sg7
F27861.0
sg8
F117551.0
sg9
F494.0
sg10
F0.12121212121212122
sg11
I00
sg12
F0.0
sg13
F71.0
sg14
F378082.0
ssS'OVERDYKE JR JERE C'
p197
(dp198
g3
F94941.0
sg4
F249787.0
sg5
F750000.0
sg6
F7307594.0
sg7
F18834.0
sg8
F5266578.0
sg9
F176.0
sg10
F0.0
sg11
I00
sg12
F0.0
sg13
F740.5
sg14
F2041016.0
ssS'PEREIRA PAULO V. FERRAZ'
p199
(dp200
g3
F258741.0
sg4
F27942.0
sg5
F750000.0
sg6
F1095040.0
sg7
F27942.0
sg8
F1297049.0
sg9
F51984.5
sg10
F0.0
sg11
I00
sg12
F0.0
sg13
F740.5
sg14
F441096.0
ssS'STABLER FRANK'
p201
(dp202
g3
F239502.0
sg4
F1112087.0
sg5
F500000.0
sg6
F511734.0
sg7
F16514.0
sg8
F1297049.0
sg9
F356071.0
sg10
F0.0
sg11
I00
sg12
F0.0
sg13
F740.5
sg14
F511734.0
ssS'SKILLING JEFFREY K'
p203
(dp204
g3
F1111258.0
sg4
F8682716.0
sg5
F5600000.0
sg6
F26093672.0
sg7
F29336.0
sg8
F19250000.0
sg9
F22122.0
sg10
F0.2777777777777778
sg11
I01
sg12
F0.0242624758753791
sg13
F2042.0
sg14
F6843672.0
ssS'BLAKE JR. NORMAN P'
p205
(dp206
g3
F258741.0
sg4
F1279.0
sg5
F750000.0
sg6
F1095040.0
sg7
F1279.0
sg8
F1297049.0
sg9
F51984.5
sg10
F0.0
sg11
I00
sg12
F0.0
sg13
F740.5
sg14
F441096.0
ssS'SHERRICK JEFFREY B'
p207
(dp208
g3
F258741.0
sg4
F1100246.5
sg5
F750000.0
sg6
F1832468.0
sg7
F46547.5
sg8
F1426469.0
sg9
F51984.5
sg10
F0.72
sg11
I00
sg12
F0.0636215334420881
sg13
F583.0
sg14
F405999.0
ssS'PRENTICE JAMES'
p209
(dp210
g3
F258741.0
sg4
F564348.0
sg5
F750000.0
sg6
F1095040.0
sg7
F46547.5
sg8
F886231.0
sg9
F51984.5
sg10
F0.0
sg11
I00
sg12
F0.0
sg13
F740.5
sg14
F208809.0
ssS'GRAY RODNEY'
p211
(dp212
g3
F6615.0
sg4
F1146658.0
sg5
F750000.0
sg6
F1095040.0
sg7
F46547.5
sg8
F1297049.0
sg9
F680833.0
sg10
F0.0
sg11
I00
sg12
F0.0
sg13
F740.5
sg14
F441096.0
ssS'THE TRAVEL AGENCY IN THE PARK'
p213
(dp214
g3
F258741.0
sg4
F362096.0
sg5
F750000.0
sg6
F1095040.0
sg7
F46547.5
sg8
F1297049.0
sg9
F362096.0
sg10
F0.0
sg11
I00
sg12
F0.0
sg13
F740.5
sg14
F441096.0
ssS'UMANOFF ADAM S'
p215
(dp216
g3
F288589.0
sg4
F1130461.0
sg5
F788750.0
sg6
F1095040.0
sg7
F53122.0
sg8
F1297049.0
sg9
F51984.5
sg10
F0.0
sg11
I00
sg12
F0.10810810810810811
sg13
F41.0
sg14
F441096.0
ssS'KEAN STEVEN J'
p217
(dp218
g3
F404338.0
sg4
F1747522.0
sg5
F1000000.0
sg6
F6153642.0
sg7
F41953.0
sg8
F2022048.0
sg9
F1231.0
sg10
F0.05725699067909454
sg11
I00
sg12
F0.010976948408342482
sg13
F3639.0
sg14
F4131594.0
ssS'FOWLER PEGGY'
p219
(dp220
g3
F258741.0
sg4
F1100246.5
sg5
F750000.0
sg6
F1884748.0
sg7
F46547.5
sg8
F1324578.0
sg9
F51984.5
sg10
F0.0
sg11
I00
sg12
F0.0
sg13
F10.0
sg14
F560170.0
ssS'WASAFF GEORGE'
p221
(dp222
g3
F259996.0
sg4
F1034395.0
sg5
F325000.0
sg6
F2056427.0
sg7
F46547.5
sg8
F1668260.0
sg9
F1425.0
sg10
F0.23333333333333334
sg11
I00
sg12
F0.055
sg13
F337.0
sg14
F388167.0
ssS'WHITE JR THOMAS E'
p223
(dp224
g3
F317543.0
sg4
F1934359.0
sg5
F450000.0
sg6
F15144123.0
sg7
F81353.0
sg8
F1297049.0
sg9
F1085463.0
sg10
F0.0
sg11
I00
sg12
F0.0
sg13
F740.5
sg14
F13847074.0
ssS'CHRISTODOULOU DIOMEDES'
p225
(dp226
g3
F258741.0
sg4
F1100246.5
sg5
F750000.0
sg6
F6077885.0
sg7
F46547.5
sg8
F5127155.0
sg9
F51984.5
sg10
F0.0
sg11
I00
sg12
F0.0
sg13
F740.5
sg14
F950730.0
ssS'ALLEN PHILLIP K'
p227
(dp228
g3
F201955.0
sg4
F4484442.0
sg5
F4175000.0
sg6
F1729541.0
sg7
F13868.0
sg8
F1729541.0
sg9
F152.0
sg10
F0.029612756264236904
sg11
I00
sg12
F0.016195727084769126
sg13
F1407.0
sg14
F126027.0
ssS'SHARP VICTORIA T'
p229
(dp230
g3
F248146.0
sg4
F1576511.0
sg5
F600000.0
sg6
F494136.0
sg7
F116337.0
sg8
F281073.0
sg9
F2401.0
sg10
F0.04411764705882353
sg11
I00
sg12
F0.007653061224489796
sg13
F2477.0
sg14
F213063.0
ssS'JAEDICKE ROBERT'
p231
(dp232
g3
F258741.0
sg4
F83750.0
sg5
F750000.0
sg6
F431750.0
sg7
F46547.5
sg8
F431750.0
sg9
F51984.5
sg10
F0.0
sg11
I00
sg12
F0.0
sg13
F740.5
sg14
F44093.0
ssS'WINOKUR JR. HERBERT S'
p233
(dp234
g3
F258741.0
sg4
F84992.0
sg5
F750000.0
sg6
F1095040.0
sg7
F1413.0
sg8
F1297049.0
sg9
F51984.5
sg10
F0.0
sg11
I00
sg12
F0.0
sg13
F740.5
sg14
F441096.0
ssS'BROWN MICHAEL'
p235
(dp236
g3
F258741.0
sg4
F49288.0
sg5
F750000.0
sg6
F1095040.0
sg7
F49288.0
sg8
F1297049.0
sg9
F51984.5
sg10
F0.024390243902439025
sg11
I00
sg12
F0.008748317631224764
sg13
F761.0
sg14
F441096.0
ssS'MCCLELLAN GEORGE'
p237
(dp238
g3
F263413.0
sg4
F1318763.0
sg5
F900000.0
sg6
F947861.0
sg7
F228763.0
sg8
F506765.0
sg9
F51587.0
sg10
F0.0
sg11
I00
sg12
F0.02981651376146789
sg13
F1469.0
sg14
F441096.0
ssS'HUGHES JAMES A'
p239
(dp240
g3
F258741.0
sg4
F1100246.5
sg5
F750000.0
sg6
F1118394.0
sg7
F46547.5
sg8
F754966.0
sg9
F51984.5
sg10
F0.14705882352941177
sg11
I00
sg12
F0.048678720445062586
sg13
F589.0
sg14
F363428.0
ssS'REYNOLDS LAWRENCE'
p241
(dp242
g3
F76399.0
sg4
F394475.0
sg5
F100000.0
sg6
F4221891.0
sg7
F8409.0
sg8
F4160672.0
sg9
F202052.0
sg10
F0.0
sg11
I00
sg12
F0.0
sg13
F740.5
sg14
F201483.0
ssS'PICKERING MARK R'
p243
(dp244
g3
F655037.0
sg4
F1386690.0
sg5
F300000.0
sg6
F28798.0
sg7
F31653.0
sg8
F28798.0
sg9
F51984.5
sg10
F0.0
sg11
I00
sg12
F0.0077951002227171495
sg13
F728.0
sg14
F441096.0
ssS'BHATNAGAR SANJAY'
p245
(dp246
g3
F258741.0
sg4
F15456290.0
sg5
F750000.0
sg6
F1095040.0
sg7
F46547.5
sg8
F2604490.0
sg9
F137864.0
sg10
F0.034482758620689655
sg11
I00
sg12
F0.0
sg13
F463.0
sg14
F-2604490.0
ssS'CARTER REBECCA C'
p247
(dp248
g3
F261809.0
sg4
F477557.0
sg5
F300000.0
sg6
F1095040.0
sg7
F46547.5
sg8
F1297049.0
sg9
F540.0
sg10
F0.4666666666666667
sg11
I00
sg12
F0.09294871794871795
sg13
F196.0
sg14
F307301.0
ssS'BUCHANAN HAROLD G'
p249
(dp250
g3
F248017.0
sg4
F1054637.0
sg5
F500000.0
sg6
F1014505.0
sg7
F600.0
sg8
F825464.0
sg9
F1215.0
sg10
F0.0
sg11
I00
sg12
F0.0
sg13
F23.0
sg14
F189041.0
ssS'YEAP SOON'
p251
(dp252
g3
F258741.0
sg4
F55097.0
sg5
F750000.0
sg6
F192758.0
sg7
F55097.0
sg8
F192758.0
sg9
F51984.5
sg10
F0.0
sg11
I00
sg12
F0.0
sg13
F740.5
sg14
F441096.0
ssS'MURRAY JULIA H'
p253
(dp254
g3
F229284.0
sg4
F812194.0
sg5
F400000.0
sg6
F597461.0
sg7
F57580.0
sg8
F400478.0
sg9
F330.0
sg10
F0.044444444444444446
sg11
I00
sg12
F0.005018248175182482
sg13
F395.0
sg14
F196983.0
ssS'GARLAND C KEVIN'
p255
(dp256
g3
F231946.0
sg4
F1566469.0
sg5
F850000.0
sg6
F896153.0
sg7
F48405.0
sg8
F636246.0
sg9
F60814.0
sg10
F0.6136363636363636
sg11
I00
sg12
F0.04784688995215311
sg13
F178.0
sg14
F259907.0
ssS'DODSON KEITH'
p257
(dp258
g3
F221003.0
sg4
F319941.0
sg5
F70000.0
sg6
F1095040.0
sg7
F28164.0
sg8
F1297049.0
sg9
F774.0
sg10
F0.21428571428571427
sg11
I00
sg12
F0.056818181818181816
sg13
F114.0
sg14
F441096.0
ssS'YEAGER F SCOTT'
p259
(dp260
g3
F158403.0
sg4
F360300.0
sg5
F750000.0
sg6
F11884758.0
sg7
F53947.0
sg8
F8308552.0
sg9
F147950.0
sg10
F0.0
sg11
I01
sg12
F0.0
sg13
F740.5
sg14
F3576206.0
ssS'HIRKO JOSEPH'
p261
(dp262
g3
F258741.0
sg4
F91093.0
sg5
F750000.0
sg6
F30766064.0
sg7
F77978.0
sg8
F30766064.0
sg9
F2856.0
sg10
F0.0
sg11
I01
sg12
F0.0
sg13
F740.5
sg14
F441096.0
ssS'DIETRICH JANET R'
p263
(dp264
g3
F250100.0
sg4
F1410464.0
sg5
F600000.0
sg6
F1865087.0
sg7
F3475.0
sg8
F1550019.0
sg9
F473.0
sg10
F0.2222222222222222
sg11
I00
sg12
F0.11858475894245724
sg13
F1902.0
sg14
F315068.0
ssS'DERRICK JR. JAMES V'
p265
(dp266
g3
F492375.0
sg4
F550981.0
sg5
F800000.0
sg6
F8831913.0
sg7
F51124.0
sg8
F8831913.0
sg9
F7482.0
sg10
F0.022002200220022004
sg11
I00
sg12
F0.029344337459880788
sg13
F1401.0
sg14
F1787380.0
ssS'FREVERT MARK A'
p267
(dp268
g3
F1060932.0
sg4
F17252530.0
sg5
F2000000.0
sg6
F14622185.0
sg7
F86987.0
sg8
F10433518.0
sg9
F7427621.0
sg10
F0.2857142857142857
sg11
I00
sg12
F0.07389312977099237
sg13
F2979.0
sg14
F4188667.0
ssS'PAI LOU L'
p269
(dp270
g3
F261879.0
sg4
F3123383.0
sg5
F1000000.0
sg6
F23817930.0
sg7
F32047.0
sg8
F15364167.0
sg9
F1829457.0
sg10
F0.0
sg11
I00
sg12
F0.0
sg13
F740.5
sg14
F8453763.0
ssS'HAYSLETT RODERICK J'
p271
(dp272
g3
F258741.0
sg4
F1100246.5
sg5
F750000.0
sg6
F346663.0
sg7
F46547.5
sg8
F1297049.0
sg9
F51984.5
sg10
F0.03581526861451461
sg11
I00
sg12
F0.01321253303133258
sg13
F571.0
sg14
F346663.0
ssS'BAY FRANKLIN R'
p273
(dp274
g3
F239671.0
sg4
F827696.0
sg5
F400000.0
sg6
F63014.0
sg7
F129142.0
sg8
F1297049.0
sg9
F69.0
sg10
F0.0
sg11
I00
sg12
F0.0
sg13
F740.5
sg14
F145796.0
ssS'MCCARTY DANNY J'
p275
(dp276
g3
F258741.0
sg4
F1100246.5
sg5
F750000.0
sg6
F758931.0
sg7
F46547.5
sg8
F664375.0
sg9
F51984.5
sg10
F0.009302325581395349
sg11
I00
sg12
F0.017445917655268667
sg13
F508.0
sg14
F94556.0
ssS'FUGH JOHN L'
p277
(dp278
g3
F258741.0
sg4
F50591.0
sg5
F750000.0
sg6
F176378.0
sg7
F46547.5
sg8
F176378.0
sg9
F51984.5
sg10
F0.0
sg11
I00
sg12
F0.0
sg13
F740.5
sg14
F441096.0
ssS'SCRIMSHAW MATTHEW'
p279
(dp280
g3
F258741.0
sg4
F1100246.5
sg5
F750000.0
sg6
F759557.0
sg7
F46547.5
sg8
F759557.0
sg9
F51984.5
sg10
F0.0
sg11
I00
sg12
F0.0
sg13
F740.5
sg14
F441096.0
ssS'KOENIG MARK E'
p281
(dp282
g3
F309946.0
sg4
F1587421.0
sg5
F700000.0
sg6
F1920055.0
sg7
F127017.0
sg8
F671737.0
sg9
F150458.0
sg10
F0.2459016393442623
sg11
I01
sg12
F0.02232518955349621
sg13
F2271.0
sg14
F1248318.0
ssS'SAVAGE FRANK'
p283
(dp284
g3
F258741.0
sg4
F3750.0
sg5
F750000.0
sg6
F1095040.0
sg7
F46547.5
sg8
F1297049.0
sg9
F51984.5
sg10
F0.0
sg11
I00
sg12
F0.0
sg13
F740.5
sg14
F441096.0
ssS'IZZO LAWRENCE L'
p285
(dp286
g3
F85274.0
sg4
F1979596.0
sg5
F750000.0
sg6
F5819980.0
sg7
F28093.0
sg8
F2165172.0
sg9
F1553729.0
sg10
F0.2631578947368421
sg11
I00
sg12
F0.056451612903225805
sg13
F437.0
sg14
F3654808.0
ssS'TILNEY ELIZABETH A'
p287
(dp288
g3
F247338.0
sg4
F399393.0
sg5
F300000.0
sg6
F1168042.0
sg7
F46547.5
sg8
F591250.0
sg9
F152055.0
sg10
F0.5789473684210527
sg11
I00
sg12
F0.021739130434782608
sg13
F379.0
sg14
F576792.0
ssS'MARTIN AMANDA K'
p289
(dp290
g3
F349487.0
sg4
F8407016.0
sg5
F750000.0
sg6
F2070306.0
sg7
F8211.0
sg8
F2070306.0
sg9
F2818454.0
sg10
F0.0
sg11
I00
sg12
F0.005256241787122208
sg13
F477.0
sg14
F441096.0
ssS'BUY RICHARD B'
p291
(dp292
g3
F330546.0
sg4
F2355702.0
sg5
F900000.0
sg6
F3444470.0
sg7
F46547.5
sg8
F2542813.0
sg9
F400572.0
sg10
F0.06742640075973409
sg11
I00
sg12
F0.04428044280442804
sg13
F2333.0
sg14
F901657.0
ssS'GRAMM WENDY L'
p293
(dp294
g3
F258741.0
sg4
F119292.0
sg5
F750000.0
sg6
F1095040.0
sg7
F46547.5
sg8
F1297049.0
sg9
F51984.5
sg10
F0.0
sg11
I00
sg12
F0.0
sg13
F740.5
sg14
F441096.0
ssS'CAUSEY RICHARD A'
p295
(dp296
g3
F415189.0
sg4
F1868758.0
sg5
F1000000.0
sg6
F2502063.0
sg7
F30674.0
sg8
F1297049.0
sg9
F307895.0
sg10
F0.24489795918367346
sg11
I01
sg12
F0.0306553911205074
sg13
F1585.0
sg14
F2502063.0
ssS'TAYLOR MITCHELL S'
p297
(dp298
g3
F265214.0
sg4
F1092663.0
sg5
F600000.0
sg6
F3745048.0
sg7
F46547.5
sg8
F3181250.0
sg9
F51984.5
sg10
F0.0
sg11
I00
sg12
F0.0
sg13
F300.0
sg14
F563798.0
ssS'DONAHUE JR JEFFREY M'
p299
(dp300
g3
F278601.0
sg4
F875760.0
sg5
F800000.0
sg6
F1080988.0
sg7
F96268.0
sg8
F765920.0
sg9
F891.0
sg10
F0.5
sg11
I00
sg12
F0.21734104046242775
sg13
F772.0
sg14
F315068.0
ssS'GLISAN JR BEN F'
p301
(dp302
g3
F274975.0
sg4
F1272284.0
sg5
F600000.0
sg6
F778546.0
sg7
F125978.0
sg8
F384728.0
sg9
F200308.0
sg10
F0.375
sg11
I01
sg12
F0.05956471935853379
sg13
F874.0
sg14
F393818.0
ss.